target datalayout = "e-m:e-p270:32:32-p271:32:32-p272:64:64-i64:64-i128:128-f80:128-n8:16:32:64-S128"
target triple = "x86_64-pc-linux-gnu"

%struct.rb_arithmetic_sequence_components_t = type { i64, i64, i64, i32 }

@rb_eRangeError = external global i64, align 8
@.str = private unnamed_addr constant [19 x i8] c"%+li\0B out of range\00", align 1

; Function Attrs: inlinehint nounwind sspstrong willreturn memory(none) uwtable
define internal i64 @rbimpl_fix2long_by_idiv(i64 noundef %0) #2 {
  %2 = alloca i64, align 8
  %3 = alloca i64, align 8
  %4 = alloca i64, align 8
  %5 = alloca i64, align 8
  store i64 %0, ptr %2, align 8, !tbaa !7
  call void @llvm.lifetime.start.p0(i64 8, ptr %3) #23
  %6 = load i64, ptr %2, align 8, !tbaa !7
  %7 = sub i64 %6, 1
  store i64 %7, ptr %3, align 8, !tbaa !7
  call void @llvm.lifetime.start.p0(i64 8, ptr %4) #23
  %8 = load i64, ptr %3, align 8, !tbaa !7
  %9 = sdiv i64 %8, 2
  store i64 %9, ptr %4, align 8, !tbaa !7
  call void @llvm.lifetime.start.p0(i64 8, ptr %5) #23
  %10 = load i64, ptr %4, align 8, !tbaa !7
  store i64 %10, ptr %5, align 8, !tbaa !7
  %11 = load i64, ptr %5, align 8, !tbaa !7
  call void @llvm.lifetime.end.p0(i64 8, ptr %5) #23
  call void @llvm.lifetime.end.p0(i64 8, ptr %4) #23
  call void @llvm.lifetime.end.p0(i64 8, ptr %3) #23
  ret i64 %11
}

; Function Attrs: inlinehint nounwind sspstrong willreturn memory(none) uwtable
define internal i64 @rbimpl_fix2long_by_shift(i64 noundef %0) #2 {
  %2 = alloca i64, align 8
  %3 = alloca i64, align 8
  %4 = alloca i64, align 8
  %5 = alloca i64, align 8
  store i64 %0, ptr %2, align 8, !tbaa !7
  call void @llvm.lifetime.start.p0(i64 8, ptr %3) #23
  %6 = load i64, ptr %2, align 8, !tbaa !7
  store i64 %6, ptr %3, align 8, !tbaa !7
  call void @llvm.lifetime.start.p0(i64 8, ptr %4) #23
  %7 = load i64, ptr %3, align 8, !tbaa !7
  %8 = ashr i64 %7, 1
  store i64 %8, ptr %4, align 8, !tbaa !7
  call void @llvm.lifetime.start.p0(i64 8, ptr %5) #23
  %9 = load i64, ptr %4, align 8, !tbaa !7
  store i64 %9, ptr %5, align 8, !tbaa !7
  %10 = load i64, ptr %5, align 8, !tbaa !7
  call void @llvm.lifetime.end.p0(i64 8, ptr %5) #23
  call void @llvm.lifetime.end.p0(i64 8, ptr %4) #23
  call void @llvm.lifetime.end.p0(i64 8, ptr %3) #23
  ret i64 %10
}

; Function Attrs: inlinehint nounwind sspstrong willreturn memory(none) uwtable
define internal zeroext i1 @rbimpl_right_shift_is_arithmetic_p() #2 {
  ret i1 true
}

; Function Attrs: inlinehint nounwind sspstrong willreturn memory(none) uwtable
define internal i64 @RB_INT2FIX(i64 noundef %0) #2 {
  %2 = alloca i64, align 8
  %3 = alloca i64, align 8
  %4 = alloca i64, align 8
  %5 = alloca i64, align 8
  %6 = alloca i64, align 8
  %7 = alloca i64, align 8
  store i64 %0, ptr %2, align 8, !tbaa !7
  call void @llvm.lifetime.start.p0(i64 8, ptr %3) #23
  %8 = load i64, ptr %2, align 8, !tbaa !7
  store i64 %8, ptr %3, align 8, !tbaa !7
  call void @llvm.lifetime.start.p0(i64 8, ptr %4) #23
  %9 = load i64, ptr %3, align 8, !tbaa !7
  %10 = shl i64 %9, 1
  %11 = add i64 %10, 1
  store i64 %11, ptr %4, align 8, !tbaa !7
  call void @llvm.lifetime.start.p0(i64 8, ptr %5) #23
  %12 = load i64, ptr %4, align 8, !tbaa !7
  store i64 %12, ptr %5, align 8, !tbaa !7
  call void @llvm.lifetime.start.p0(i64 8, ptr %6) #23
  %13 = load i64, ptr %5, align 8, !tbaa !7
  store i64 %13, ptr %6, align 8, !tbaa !7
  call void @llvm.lifetime.start.p0(i64 8, ptr %7) #23
  %14 = load i64, ptr %6, align 8, !tbaa !7
  store i64 %14, ptr %7, align 8, !tbaa !7
  %15 = load i64, ptr %7, align 8, !tbaa !7
  call void @llvm.lifetime.end.p0(i64 8, ptr %7) #23
  call void @llvm.lifetime.end.p0(i64 8, ptr %6) #23
  call void @llvm.lifetime.end.p0(i64 8, ptr %5) #23
  call void @llvm.lifetime.end.p0(i64 8, ptr %4) #23
  call void @llvm.lifetime.end.p0(i64 8, ptr %3) #23
  ret i64 %15
}

; Function Attrs: inlinehint nounwind sspstrong willreturn memory(none) uwtable
define internal i64 @rb_fix2long(i64 noundef %0) #2 {
  %2 = alloca i64, align 8
  %3 = alloca i64, align 8
  store i64 %0, ptr %3, align 8, !tbaa !7
  %4 = call zeroext i1 @rbimpl_right_shift_is_arithmetic_p() #24
  br i1 %4, label %5, label %8

5:                                                ; preds = %1
  %6 = load i64, ptr %3, align 8, !tbaa !7
  %7 = call i64 @rbimpl_fix2long_by_shift(i64 noundef %6) #24
  store i64 %7, ptr %2, align 8
  br label %11

8:                                                ; preds = %1
  %9 = load i64, ptr %3, align 8, !tbaa !7
  %10 = call i64 @rbimpl_fix2long_by_idiv(i64 noundef %9) #24
  store i64 %10, ptr %2, align 8
  br label %11

11:                                               ; preds = %8, %5
  %12 = load i64, ptr %2, align 8
  ret i64 %12
}

; Function Attrs: inlinehint nounwind sspstrong willreturn memory(none) uwtable
define internal zeroext i1 @RB_FIXNUM_P(i64 noundef %0) #2 {
  %2 = alloca i64, align 8
  store i64 %0, ptr %2, align 8, !tbaa !7
  %3 = load i64, ptr %2, align 8, !tbaa !7
  %4 = and i64 %3, 1
  %5 = icmp ne i64 %4, 0
  ret i1 %5
}

; Function Attrs: inlinehint nounwind sspstrong uwtable
define internal i64 @rb_long2num_inline(i64 noundef %0) #4 {
  %2 = alloca i64, align 8
  %3 = alloca i64, align 8
  store i64 %0, ptr %3, align 8, !tbaa !7
  %4 = load i64, ptr %3, align 8, !tbaa !7
  %5 = icmp slt i64 %4, 4611686018427387904
  br i1 %5, label %6, label %12

6:                                                ; preds = %1
  %7 = load i64, ptr %3, align 8, !tbaa !7
  %8 = icmp sge i64 %7, -4611686018427387904
  br i1 %8, label %9, label %12

9:                                                ; preds = %6
  %10 = load i64, ptr %3, align 8, !tbaa !7
  %11 = call i64 @RB_INT2FIX(i64 noundef %10) #24
  store i64 %11, ptr %2, align 8
  br label %15

12:                                               ; preds = %6, %1
  %13 = load i64, ptr %3, align 8, !tbaa !7
  %14 = call i64 @rb_int2big(i64 noundef %13)
  store i64 %14, ptr %2, align 8
  br label %15

15:                                               ; preds = %12, %9
  %16 = load i64, ptr %2, align 8
  ret i64 %16
}

; Function Attrs: inlinehint nounwind sspstrong uwtable
define internal i64 @rb_num2long_inline(i64 noundef %0) #4 {
  %2 = alloca i64, align 8
  %3 = alloca i64, align 8
  store i64 %0, ptr %3, align 8, !tbaa !7
  %4 = load i64, ptr %3, align 8, !tbaa !7
  %5 = call zeroext i1 @RB_FIXNUM_P(i64 noundef %4) #24
  br i1 %5, label %6, label %9

6:                                                ; preds = %1
  %7 = load i64, ptr %3, align 8, !tbaa !7
  %8 = call i64 @rb_fix2long(i64 noundef %7) #24
  store i64 %8, ptr %2, align 8
  br label %12

9:                                                ; preds = %1
  %10 = load i64, ptr %3, align 8, !tbaa !7
  %11 = call i64 @rb_num2long(i64 noundef %10)
  store i64 %11, ptr %2, align 8
  br label %12

12:                                               ; preds = %9, %6
  %13 = load i64, ptr %2, align 8
  ret i64 %13
}

; Function Attrs: inlinehint nounwind sspstrong willreturn memory(none) uwtable
define internal zeroext i1 @RB_NIL_P(i64 noundef %0) #2 {
  %2 = alloca i64, align 8
  store i64 %0, ptr %2, align 8, !tbaa !7
  %3 = load i64, ptr %2, align 8, !tbaa !7
  %4 = icmp eq i64 %3, 4
  ret i1 %4
}

; Function Attrs: nounwind sspstrong uwtable
define dso_local i64 @rb_arithmetic_sequence_beg_len_step(i64 noundef %0, ptr noundef nonnull %1, ptr noundef nonnull %2, ptr noundef nonnull %3, i64 noundef %4, i32 noundef %5) #0 {
  %7 = alloca i64, align 8
  %8 = alloca i64, align 8
  %9 = alloca ptr, align 8
  %10 = alloca ptr, align 8
  %11 = alloca ptr, align 8
  %12 = alloca i64, align 8
  %13 = alloca i32, align 4
  %14 = alloca %struct.rb_arithmetic_sequence_components_t, align 8
  %15 = alloca i32, align 4
  %16 = alloca i64, align 8
  %17 = alloca i64, align 8
  store i64 %0, ptr %8, align 8, !tbaa !7
  store ptr %1, ptr %9, align 8, !tbaa !13
  store ptr %2, ptr %10, align 8, !tbaa !13
  store ptr %3, ptr %11, align 8, !tbaa !13
  store i64 %4, ptr %12, align 8, !tbaa !7
  store i32 %5, ptr %13, align 4, !tbaa !11
  call void @llvm.lifetime.start.p0(i64 32, ptr %14) #23
  %18 = load i64, ptr %8, align 8, !tbaa !7
  %19 = call i32 @rb_arithmetic_sequence_extract(i64 noundef %18, ptr noundef %14)
  %20 = icmp ne i32 %19, 0
  br i1 %20, label %22, label %21

21:                                               ; preds = %6
  store i64 0, ptr %7, align 8
  store i32 1, ptr %15, align 4
  br label %113

22:                                               ; preds = %6
  call void @llvm.lifetime.start.p0(i64 8, ptr %16) #23
  %23 = getelementptr inbounds nuw %struct.rb_arithmetic_sequence_components_t, ptr %14, i32 0, i32 2
  %24 = load i64, ptr %23, align 8, !tbaa !32
  %25 = call zeroext i1 @RB_NIL_P(i64 noundef %24) #24
  br i1 %25, label %26, label %27

26:                                               ; preds = %22
  br label %31

27:                                               ; preds = %22
  %28 = getelementptr inbounds nuw %struct.rb_arithmetic_sequence_components_t, ptr %14, i32 0, i32 2
  %29 = load i64, ptr %28, align 8, !tbaa !32
  %30 = call i64 @rb_num2long_inline(i64 noundef %29)
  br label %31

31:                                               ; preds = %27, %26
  %32 = phi i64 [ 1, %26 ], [ %30, %27 ]
  store i64 %32, ptr %16, align 8, !tbaa !7
  %33 = load i64, ptr %16, align 8, !tbaa !7
  %34 = load ptr, ptr %11, align 8, !tbaa !13
  store i64 %33, ptr %34, align 8, !tbaa !7
  %35 = load i64, ptr %16, align 8, !tbaa !7
  %36 = icmp slt i64 %35, 0
  br i1 %36, label %37, label %61

37:                                               ; preds = %31
  %38 = getelementptr inbounds nuw %struct.rb_arithmetic_sequence_components_t, ptr %14, i32 0, i32 3
  %39 = load i32, ptr %38, align 8, !tbaa !33
  %40 = icmp ne i32 %39, 0
  br i1 %40, label %41, label %53

41:                                               ; preds = %37
  %42 = getelementptr inbounds nuw %struct.rb_arithmetic_sequence_components_t, ptr %14, i32 0, i32 1
  %43 = load i64, ptr %42, align 8, !tbaa !31
  %44 = call zeroext i1 @RB_NIL_P(i64 noundef %43) #24
  br i1 %44, label %53, label %45

45:                                               ; preds = %41
  %46 = getelementptr inbounds nuw %struct.rb_arithmetic_sequence_components_t, ptr %14, i32 0, i32 1
  %47 = load i64, ptr %46, align 8, !tbaa !31
  %48 = call i64 @rb_num2long_inline(i64 noundef %47)
  %49 = add i64 %48, 1
  %50 = call i64 @rb_long2num_inline(i64 noundef %49)
  %51 = getelementptr inbounds nuw %struct.rb_arithmetic_sequence_components_t, ptr %14, i32 0, i32 1
  store i64 %50, ptr %51, align 8, !tbaa !31
  %52 = getelementptr inbounds nuw %struct.rb_arithmetic_sequence_components_t, ptr %14, i32 0, i32 3
  store i32 0, ptr %52, align 8, !tbaa !33
  br label %53

53:                                               ; preds = %45, %41, %37
  call void @llvm.lifetime.start.p0(i64 8, ptr %17) #23
  %54 = getelementptr inbounds nuw %struct.rb_arithmetic_sequence_components_t, ptr %14, i32 0, i32 0
  %55 = load i64, ptr %54, align 8, !tbaa !29
  store i64 %55, ptr %17, align 8, !tbaa !7
  %56 = getelementptr inbounds nuw %struct.rb_arithmetic_sequence_components_t, ptr %14, i32 0, i32 1
  %57 = load i64, ptr %56, align 8, !tbaa !31
  %58 = getelementptr inbounds nuw %struct.rb_arithmetic_sequence_components_t, ptr %14, i32 0, i32 0
  store i64 %57, ptr %58, align 8, !tbaa !29
  %59 = load i64, ptr %17, align 8, !tbaa !7
  %60 = getelementptr inbounds nuw %struct.rb_arithmetic_sequence_components_t, ptr %14, i32 0, i32 1
  store i64 %59, ptr %60, align 8, !tbaa !31
  call void @llvm.lifetime.end.p0(i64 8, ptr %17) #23
  br label %61

61:                                               ; preds = %53, %31
  %62 = load i32, ptr %13, align 4, !tbaa !11
  %63 = icmp eq i32 %62, 0
  br i1 %63, label %64, label %96

64:                                               ; preds = %61
  %65 = load i64, ptr %16, align 8, !tbaa !7
  %66 = icmp slt i64 %65, -1
  br i1 %66, label %70, label %67

67:                                               ; preds = %64
  %68 = load i64, ptr %16, align 8, !tbaa !7
  %69 = icmp sgt i64 %68, 1
  br i1 %69, label %70, label %96

70:                                               ; preds = %67, %64
  %71 = getelementptr inbounds nuw %struct.rb_arithmetic_sequence_components_t, ptr %14, i32 0, i32 0
  %72 = load i64, ptr %71, align 8, !tbaa !29
  %73 = getelementptr inbounds nuw %struct.rb_arithmetic_sequence_components_t, ptr %14, i32 0, i32 1
  %74 = load i64, ptr %73, align 8, !tbaa !31
  %75 = getelementptr inbounds nuw %struct.rb_arithmetic_sequence_components_t, ptr %14, i32 0, i32 3
  %76 = load i32, ptr %75, align 8, !tbaa !33
  %77 = load ptr, ptr %9, align 8, !tbaa !13
  %78 = load ptr, ptr %10, align 8, !tbaa !13
  %79 = load i64, ptr %12, align 8, !tbaa !7
  %80 = call i64 @rb_range_component_beg_len(i64 noundef %72, i64 noundef %74, i32 noundef %76, ptr noundef %77, ptr noundef %78, i64 noundef %79, i32 noundef 1)
  %81 = icmp eq i64 %80, 20
  br i1 %81, label %82, label %95

82:                                               ; preds = %70
  %83 = load ptr, ptr %9, align 8, !tbaa !13
  %84 = load i64, ptr %83, align 8, !tbaa !7
  %85 = load i64, ptr %12, align 8, !tbaa !7
  %86 = icmp sgt i64 %84, %85
  br i1 %86, label %87, label %88

87:                                               ; preds = %82
  br label %109

88:                                               ; preds = %82
  %89 = load ptr, ptr %10, align 8, !tbaa !13
  %90 = load i64, ptr %89, align 8, !tbaa !7
  %91 = load i64, ptr %12, align 8, !tbaa !7
  %92 = icmp sgt i64 %90, %91
  br i1 %92, label %93, label %94

93:                                               ; preds = %88
  br label %109

94:                                               ; preds = %88
  store i64 20, ptr %7, align 8
  store i32 1, ptr %15, align 4
  br label %112

95:                                               ; preds = %70
  br label %108

96:                                               ; preds = %67, %61
  %97 = getelementptr inbounds nuw %struct.rb_arithmetic_sequence_components_t, ptr %14, i32 0, i32 0
  %98 = load i64, ptr %97, align 8, !tbaa !29
  %99 = getelementptr inbounds nuw %struct.rb_arithmetic_sequence_components_t, ptr %14, i32 0, i32 1
  %100 = load i64, ptr %99, align 8, !tbaa !31
  %101 = getelementptr inbounds nuw %struct.rb_arithmetic_sequence_components_t, ptr %14, i32 0, i32 3
  %102 = load i32, ptr %101, align 8, !tbaa !33
  %103 = load ptr, ptr %9, align 8, !tbaa !13
  %104 = load ptr, ptr %10, align 8, !tbaa !13
  %105 = load i64, ptr %12, align 8, !tbaa !7
  %106 = load i32, ptr %13, align 4, !tbaa !11
  %107 = call i64 @rb_range_component_beg_len(i64 noundef %98, i64 noundef %100, i32 noundef %102, ptr noundef %103, ptr noundef %104, i64 noundef %105, i32 noundef %106)
  store i64 %107, ptr %7, align 8
  store i32 1, ptr %15, align 4
  br label %112

108:                                              ; preds = %95
  br label %109

109:                                              ; preds = %108, %93, %87
  %110 = load i64, ptr @rb_eRangeError, align 8, !tbaa !7
  %111 = load i64, ptr %8, align 8, !tbaa !7
  call void (i64, ptr, ...) @rb_raise(i64 noundef %110, ptr noundef @.str, i64 noundef %111) #25
  unreachable

112:                                              ; preds = %96, %94
  call void @llvm.lifetime.end.p0(i64 8, ptr %16) #23
  br label %113

113:                                              ; preds = %112, %21
  call void @llvm.lifetime.end.p0(i64 32, ptr %14) #23
  %114 = load i64, ptr %7, align 8
  ret i64 %114
}