; Function Attrs: nounwind sspstrong uwtable
define dso_local i64 @rb_arithmetic_sequence_beg_len_step(i64 noundef %0, ptr noundef nonnull %1, ptr noundef nonnull %2, ptr noundef nonnull writeonly captures(none) %3, i64 noundef %4, i32 noundef %5) local_unnamed_addr #0 {
  %7 = alloca %struct.rb_arithmetic_sequence_components_t, align 8
  call void @llvm.lifetime.start.p0(i64 32, ptr nonnull %7) #18
  %8 = call i32 @rb_arithmetic_sequence_extract(i64 noundef %0, ptr noundef %7)
  %.not = icmp eq i32 %8, 0
  br i1 %.not, label %67, label %9

9:                                                ; preds = %6
  %10 = getelementptr inbounds nuw i8, ptr %7, i64 16
  %11 = load i64, ptr %10, align 8, !tbaa !35
  %12 = icmp eq i64 %11, 4
  br i1 %12, label %.thread, label %13

.thread:                                          ; preds = %9
  store i64 1, ptr %3, align 8, !tbaa !7
  %.pre30 = load i64, ptr %7, align 8, !tbaa !32
  br label %58

13:                                               ; preds = %9
  %14 = and i64 %11, 1
  %.not.i = icmp eq i64 %14, 0
  br i1 %.not.i, label %17, label %15

15:                                               ; preds = %13
  %16 = ashr i64 %11, 1
  br label %rb_num2long_inline.exit

17:                                               ; preds = %13
  %18 = call i64 @rb_num2long(i64 noundef %11) #18
  br label %rb_num2long_inline.exit

rb_num2long_inline.exit:                          ; preds = %17, %15
  %19 = phi i64 [ %16, %15 ], [ %18, %17 ]
  store i64 %19, ptr %3, align 8, !tbaa !7
  %20 = icmp slt i64 %19, 0
  br i1 %20, label %21, label %rb_num2long_inline.exit._crit_edge

rb_num2long_inline.exit._crit_edge:               ; preds = %rb_num2long_inline.exit
  %.pre31.pre = load i64, ptr %7, align 8, !tbaa !32
  br label %42

21:                                               ; preds = %rb_num2long_inline.exit
  %22 = getelementptr inbounds nuw i8, ptr %7, i64 24
  %23 = load i32, ptr %22, align 8, !tbaa !36
  %.not22 = icmp eq i32 %23, 0
  %.phi.trans.insert = getelementptr inbounds nuw i8, ptr %7, i64 8
  %.pre = load i64, ptr %.phi.trans.insert, align 8, !tbaa !34
  br i1 %.not22, label %._crit_edge, label %24

24:                                               ; preds = %21
  %25 = icmp eq i64 %.pre, 4
  br i1 %25, label %._crit_edge, label %26

26:                                               ; preds = %24
  %27 = and i64 %.pre, 1
  %.not.i24 = icmp eq i64 %27, 0
  br i1 %.not.i24, label %30, label %28

28:                                               ; preds = %26
  %29 = ashr i64 %.pre, 1
  br label %rb_num2long_inline.exit26

30:                                               ; preds = %26
  %31 = call i64 @rb_num2long(i64 noundef %.pre) #18
  br label %rb_num2long_inline.exit26

rb_num2long_inline.exit26:                        ; preds = %28, %30
  %.0.i25 = phi i64 [ %29, %28 ], [ %31, %30 ]
  %32 = add i64 %.0.i25, 1
  %33 = add i64 %.0.i25, 4611686018427387905
  %or.cond.i = icmp sgt i64 %33, -1
  br i1 %or.cond.i, label %34, label %37

34:                                               ; preds = %rb_num2long_inline.exit26
  %35 = shl nsw i64 %32, 1
  %36 = or disjoint i64 %35, 1
  br label %rb_long2num_inline.exit

37:                                               ; preds = %rb_num2long_inline.exit26
  %38 = call i64 @rb_int2big(i64 noundef %32) #18
  br label %rb_long2num_inline.exit

rb_long2num_inline.exit:                          ; preds = %34, %37
  %.0.i27 = phi i64 [ %36, %34 ], [ %38, %37 ]
  store i32 0, ptr %22, align 8, !tbaa !36
  br label %._crit_edge

._crit_edge:                                      ; preds = %21, %rb_long2num_inline.exit, %24
  %39 = phi i64 [ %.0.i27, %rb_long2num_inline.exit ], [ 4, %24 ], [ %.pre, %21 ]
  %40 = load i64, ptr %7, align 8, !tbaa !32
  %41 = getelementptr inbounds nuw i8, ptr %7, i64 8
  store i64 %39, ptr %7, align 8, !tbaa !32
  store i64 %40, ptr %41, align 8, !tbaa !34
  br label %42

42:                                               ; preds = %rb_num2long_inline.exit._crit_edge, %._crit_edge
  %.pre31 = phi i64 [ %.pre31.pre, %rb_num2long_inline.exit._crit_edge ], [ %39, %._crit_edge ]
  %43 = icmp eq i32 %5, 0
  %44 = add i64 %19, -2
  %or.cond = icmp ult i64 %44, -3
  %or.cond23 = and i1 %43, %or.cond
  br i1 %or.cond23, label %45, label %58

45:                                               ; preds = %42
  %46 = getelementptr inbounds nuw i8, ptr %7, i64 8
  %47 = load i64, ptr %46, align 8, !tbaa !34
  %48 = getelementptr inbounds nuw i8, ptr %7, i64 24
  %49 = load i32, ptr %48, align 8, !tbaa !36
  %50 = call i64 @rb_range_component_beg_len(i64 noundef %.pre31, i64 noundef %47, i32 noundef %49, ptr noundef nonnull %1, ptr noundef nonnull %2, i64 noundef %4, i32 noundef 1) #18
  %51 = icmp eq i64 %50, 20
  br i1 %51, label %52, label %65

52:                                               ; preds = %45
  %53 = load i64, ptr %1, align 8, !tbaa !7
  %54 = icmp sgt i64 %53, %4
  br i1 %54, label %65, label %55

55:                                               ; preds = %52
  %56 = load i64, ptr %2, align 8, !tbaa !7
  %57 = icmp sgt i64 %56, %4
  br i1 %57, label %65, label %67

58:                                               ; preds = %.thread, %42
  %59 = phi i64 [ %.pre30, %.thread ], [ %.pre31, %42 ]
  %60 = getelementptr inbounds nuw i8, ptr %7, i64 8
  %61 = load i64, ptr %60, align 8, !tbaa !34
  %62 = getelementptr inbounds nuw i8, ptr %7, i64 24
  %63 = load i32, ptr %62, align 8, !tbaa !36
  %64 = call i64 @rb_range_component_beg_len(i64 noundef %59, i64 noundef %61, i32 noundef %63, ptr noundef nonnull %1, ptr noundef nonnull %2, i64 noundef %4, i32 noundef %5) #18
  br label %67

65:                                               ; preds = %45, %55, %52
  %66 = load i64, ptr @rb_eRangeError, align 8, !tbaa !7
  call void (i64, ptr, ...) @rb_raise(i64 noundef %66, ptr noundef nonnull @.str, i64 noundef %0) #19
  unreachable

67:                                               ; preds = %58, %55, %6
  %.0 = phi i64 [ 0, %6 ], [ %64, %58 ], [ 20, %55 ]
  call void @llvm.lifetime.end.p0(i64 32, ptr nonnull %7) #18
  ret i64 %.0
}